#include <math.h>
#include <stdio.h>
#include <stdlib.h>
#include <string.h>
#include <iostream>
using namespace std;



int main()
{
int month[12] = {31,28,31,30,31,30,31,31,30,31,30,31};
    int n, m,d;
   cin >> n >> m >> d;
int counter = 0;
    for(int  i = 0 ; i < m-1; i++){
        if(i == 1&&(n%4==0&&(n%100!=0)||n%400==0)){
                counter++;
}
        counter = counter + month[i];
}

counter = counter + d;
cout << counter;
}